Certificate:
    Data:
        Version: 3 (0x2)
        Serial Number: 1 (0x1)
    Signature Algorithm: sha256WithRSAEncryption
        Issuer: C=CN, ST=ZheJiang, L=HangZhou, O=DT, OU=dt, CN=local-group.net/emailAddress=thewawar@gmail.com
        Validity
            Not Before: Jan  7 15:59:51 2017 GMT
            Not After : Jan  7 15:59:51 2018 GMT
        Subject: C=CN, ST=ZheJiang, O=DT, OU=dt, CN=local-group.net/emailAddress=thewawar@gmail.com
        Subject Public Key Info:
            Public Key Algorithm: rsaEncryption
                Public-Key: (1024 bit)
                Modulus:
                    00:d1:5d:0d:06:aa:fd:26:15:e3:10:f2:e0:91:87:
                    9b:f2:9f:11:c5:0b:10:98:c2:8e:4f:21:8d:8c:58:
                    89:09:46:e9:7a:a6:16:12:f2:13:a7:90:bb:a3:f6:
                    4b:55:66:0a:73:3c:d2:4e:03:a2:19:7e:26:d9:6a:
                    d7:4f:b3:1a:91:d8:45:3d:66:16:cb:68:a8:5c:80:
                    b2:1b:e9:22:fe:d6:39:77:a0:f3:ea:a2:a1:40:84:
                    15:93:13:d7:a3:8a:db:f6:b1:58:75:88:7e:46:4d:
                    29:d4:2b:1e:e5:62:0c:d7:c7:af:1c:84:18:34:98:
                    40:b7:76:ed:9b:ae:56:07:2b
                Exponent: 65537 (0x10001)
        X509v3 extensions:
            X509v3 Basic Constraints: 
                CA:FALSE
            Netscape Comment: 
                OpenSSL Generated Certificate
            X509v3 Subject Key Identifier: 
                95:04:B7:DF:A0:4E:71:6C:59:2F:1C:69:68:C4:0E:F2:B1:A2:C4:4D
            X509v3 Authority Key Identifier: 
                keyid:86:74:44:E0:82:0A:9E:38:A6:E6:D6:FD:BB:5F:13:DE:A1:B2:D5:B2

    Signature Algorithm: sha256WithRSAEncryption
         31:c3:88:d1:9c:dc:f1:8e:d1:a9:51:99:06:bb:14:3a:b3:c9:
         f7:66:75:5a:d9:f0:b3:b6:b6:a8:8b:cb:af:e6:55:70:87:a1:
         57:dd:9d:d4:f1:0d:54:ed:bf:b5:6c:b4:83:f2:bc:33:9c:37:
         83:4a:6f:d2:f2:b0:74:4f:d2:2d:41:17:64:1f:84:c0:f7:eb:
         f2:af:60:4c:74:38:24:b1:f4:72:47:ac:32:1e:9c:67:07:9e:
         28:82:47:16:be:93:63:82:e0:47:01:33:72:c4:d8:85:ff:c2:
         3e:82:51:d0:38:4f:d3:4b:89:ab:76:ab:11:25:c8:12:e7:76:
         c6:d1:bc:4f:6b:b4:38:e2:c4:51:f4:57:77:a8:38:bb:9a:18:
         96:b8:a4:99:b5:cc:7f:ef:9c:60:7d:db:60:31:3b:81:de:2e:
         4f:cc:26:d3:a5:4e:9d:91:79:c3:31:98:cf:20:f9:fe:e2:a8:
         0b:f3:15:83:50:2b:6d:b6:a2:f9:49:14:58:3e:25:56:28:29:
         52:db:91:cd:bb:06:da:0b:cf:b0:94:01:99:21:79:cb:dd:d2:
         a2:91:1d:66:fb:92:6a:1f:75:57:28:6d:c4:88:2f:ad:3b:a8:
         84:b2:6e:6e:22:44:f4:64:bf:ea:3c:f1:86:98:68:85:0b:e2:
         7a:55:a7:32
-----BEGIN CERTIFICATE-----
MIIDdDCCAlygAwIBAgIBATANBgkqhkiG9w0BAQsFADCBijELMAkGA1UEBhMCQ04x
ETAPBgNVBAgMCFpoZUppYW5nMREwDwYDVQQHDAhIYW5nWmhvdTELMAkGA1UECgwC
RFQxCzAJBgNVBAsMAmR0MRgwFgYDVQQDDA9sb2NhbC1ncm91cC5uZXQxITAfBgkq
hkiG9w0BCQEWEnRoZXdhd2FyQGdtYWlsLmNvbTAeFw0xNzAxMDcxNTU5NTFaFw0x
ODAxMDcxNTU5NTFaMHcxCzAJBgNVBAYTAkNOMREwDwYDVQQIDAhaaGVKaWFuZzEL
MAkGA1UECgwCRFQxCzAJBgNVBAsMAmR0MRgwFgYDVQQDDA9sb2NhbC1ncm91cC5u
ZXQxITAfBgkqhkiG9w0BCQEWEnRoZXdhd2FyQGdtYWlsLmNvbTCBnzANBgkqhkiG
9w0BAQEFAAOBjQAwgYkCgYEA0V0NBqr9JhXjEPLgkYeb8p8RxQsQmMKOTyGNjFiJ
CUbpeqYWEvITp5C7o/ZLVWYKczzSTgOiGX4m2WrXT7MakdhFPWYWy2ioXICyG+ki
/tY5d6Dz6qKhQIQVkxPXo4rb9rFYdYh+Rk0p1Cse5WIM18evHIQYNJhAt3btm65W
BysCAwEAAaN7MHkwCQYDVR0TBAIwADAsBglghkgBhvhCAQ0EHxYdT3BlblNTTCBH
ZW5lcmF0ZWQgQ2VydGlmaWNhdGUwHQYDVR0OBBYEFJUEt9+gTnFsWS8caWjEDvKx
osRNMB8GA1UdIwQYMBaAFIZ0ROCCCp44pubW/btfE96hstWyMA0GCSqGSIb3DQEB
CwUAA4IBAQAxw4jRnNzxjtGpUZkGuxQ6s8n3ZnVa2fCztraoi8uv5lVwh6FX3Z3U
8Q1U7b+1bLSD8rwznDeDSm/S8rB0T9ItQRdkH4TA9+vyr2BMdDgksfRyR6wyHpxn
B54ogkcWvpNjguBHATNyxNiF/8I+glHQOE/TS4mrdqsRJcgS53bG0bxPa7Q44sRR
9Fd3qDi7mhiWuKSZtcx/75xgfdtgMTuB3i5PzCbTpU6dkXnDMZjPIPn+4qgL8xWD
UCtttqL5SRRYPiVWKClS25HNuwbaC8+wlAGZIXnL3dKikR1m+5JqH3VXKG3EiC+t
O6iEsm5uIkT0ZL/qPPGGmGiFC+J6Vacy
-----END CERTIFICATE-----
