Certificate:
    Data:
        Version: 3 (0x2)
        Serial Number: 2 (0x2)
    Signature Algorithm: sha256WithRSAEncryption
        Issuer: C=CN, ST=ZheJiang, L=HangZhou, O=DT, OU=dt, CN=local-group.net/emailAddress=thewawar@gmail.com
        Validity
            Not Before: Jan  7 16:21:46 2017 GMT
            Not After : Jan  7 16:21:46 2018 GMT
        Subject: C=CN, ST=ZheJiang, O=DT, OU=dt, CN=client.local-group.net/emailAddress=thewawar@gmail.com
        Subject Public Key Info:
            Public Key Algorithm: rsaEncryption
                Public-Key: (1024 bit)
                Modulus:
                    00:b1:06:fa:0b:89:fc:c8:95:67:a6:2b:48:f0:cb:
                    94:8e:17:9f:b5:e3:d9:d6:82:13:9e:a3:39:cf:a7:
                    bf:4e:db:f2:f7:07:e1:63:45:c1:5f:4f:81:b1:f5:
                    7e:f6:70:5d:78:d6:b9:84:27:03:81:a7:01:ea:c1:
                    13:2b:e9:c7:97:87:8c:11:c7:c2:71:78:e7:e5:0e:
                    fc:66:ab:ee:d9:96:36:16:8f:8d:c0:60:7c:91:c5:
                    37:06:90:1d:08:7a:f5:97:b8:63:d6:2f:68:a2:f9:
                    f9:74:0e:00:c5:6e:db:52:f2:6b:7e:d4:62:f5:e9:
                    5f:e3:4f:ce:02:7d:8a:5f:bd
                Exponent: 65537 (0x10001)
        X509v3 extensions:
            X509v3 Basic Constraints: 
                CA:FALSE
            Netscape Comment: 
                OpenSSL Generated Certificate
            X509v3 Subject Key Identifier: 
                F3:F4:42:0E:BD:41:F5:8C:F2:17:5D:E1:BE:A3:24:96:35:6A:7C:56
            X509v3 Authority Key Identifier: 
                keyid:86:74:44:E0:82:0A:9E:38:A6:E6:D6:FD:BB:5F:13:DE:A1:B2:D5:B2

    Signature Algorithm: sha256WithRSAEncryption
         71:cb:25:70:37:4e:08:e1:af:0c:d9:62:1b:35:19:91:d7:a3:
         48:86:a2:a0:7d:91:29:4a:3a:6a:81:77:0d:90:f1:a9:19:f1:
         8f:be:d4:7d:b9:2c:1e:af:eb:00:b1:e4:61:24:5e:33:19:b8:
         fd:86:66:2f:7e:4d:6f:45:0b:77:b0:23:1f:7b:bc:65:66:af:
         08:bd:3e:d5:3d:01:3c:59:bf:40:a6:9b:7b:2c:3c:e4:da:05:
         8e:3e:65:81:f6:17:2a:b7:d4:b3:37:16:c9:03:c2:d8:68:86:
         d6:d0:64:26:23:1d:89:9e:31:11:50:3b:d4:c6:d3:4b:c8:01:
         09:3b:55:cc:ec:43:37:f4:48:26:ac:b7:68:0f:ea:4e:67:43:
         5a:d7:b4:8b:13:90:15:6a:d4:62:10:e3:a8:52:e7:1a:db:2d:
         69:7d:c0:cd:aa:40:e7:11:df:60:15:c9:82:dc:71:f4:b5:b9:
         f7:87:ea:1e:73:0a:ed:8e:c2:f7:6a:b8:e5:82:91:44:7d:cd:
         80:26:e2:29:63:a4:a2:41:91:08:fb:aa:1b:26:2c:c9:54:e1:
         80:a6:a6:c5:75:fc:6b:10:fa:5e:a6:dc:94:7f:c1:3a:3d:d4:
         e3:11:82:df:e4:01:ec:3a:09:a0:7d:1f:6a:fe:4b:f1:77:68:
         04:67:04:ef
-----BEGIN CERTIFICATE-----
MIIDezCCAmOgAwIBAgIBAjANBgkqhkiG9w0BAQsFADCBijELMAkGA1UEBhMCQ04x
ETAPBgNVBAgMCFpoZUppYW5nMREwDwYDVQQHDAhIYW5nWmhvdTELMAkGA1UECgwC
RFQxCzAJBgNVBAsMAmR0MRgwFgYDVQQDDA9sb2NhbC1ncm91cC5uZXQxITAfBgkq
hkiG9w0BCQEWEnRoZXdhd2FyQGdtYWlsLmNvbTAeFw0xNzAxMDcxNjIxNDZaFw0x
ODAxMDcxNjIxNDZaMH4xCzAJBgNVBAYTAkNOMREwDwYDVQQIDAhaaGVKaWFuZzEL
MAkGA1UECgwCRFQxCzAJBgNVBAsMAmR0MR8wHQYDVQQDDBZjbGllbnQubG9jYWwt
Z3JvdXAubmV0MSEwHwYJKoZIhvcNAQkBFhJ0aGV3YXdhckBnbWFpbC5jb20wgZ8w
DQYJKoZIhvcNAQEBBQADgY0AMIGJAoGBALEG+guJ/MiVZ6YrSPDLlI4Xn7Xj2daC
E56jOc+nv07b8vcH4WNFwV9PgbH1fvZwXXjWuYQnA4GnAerBEyvpx5eHjBHHwnF4
5+UO/Gar7tmWNhaPjcBgfJHFNwaQHQh69Ze4Y9YvaKL5+XQOAMVu21Lya37UYvXp
X+NPzgJ9il+9AgMBAAGjezB5MAkGA1UdEwQCMAAwLAYJYIZIAYb4QgENBB8WHU9w
ZW5TU0wgR2VuZXJhdGVkIENlcnRpZmljYXRlMB0GA1UdDgQWBBTz9EIOvUH1jPIX
XeG+oySWNWp8VjAfBgNVHSMEGDAWgBSGdETgggqeOKbm1v27XxPeobLVsjANBgkq
hkiG9w0BAQsFAAOCAQEAccslcDdOCOGvDNliGzUZkdejSIaioH2RKUo6aoF3DZDx
qRnxj77UfbksHq/rALHkYSReMxm4/YZmL35Nb0ULd7AjH3u8ZWavCL0+1T0BPFm/
QKabeyw85NoFjj5lgfYXKrfUszcWyQPC2GiG1tBkJiMdiZ4xEVA71MbTS8gBCTtV
zOxDN/RIJqy3aA/qTmdDWte0ixOQFWrUYhDjqFLnGtstaX3AzapA5xHfYBXJgtxx
9LW594fqHnMK7Y7C92q45YKRRH3NgCbiKWOkokGRCPuqGyYsyVThgKamxXX8axD6
XqbclH/BOj3U4xGC3+QB7DoJoH0fav5L8XdoBGcE7w==
-----END CERTIFICATE-----
